target datalayout = "e-m:e-p270:32:32-p271:32:32-p272:64:64-i64:64-i128:128-f80:128-n8:16:32:64-S128"
target triple = "x86_64-pc-linux-gnu"

%struct.mi_memid_s = type { %union.anon, i8, i8, i8, i32 }
%union.anon = type { %struct.mi_memid_os_info }
%struct.mi_memid_os_info = type { ptr, i64 }
%struct.mi_arena_s = type { i32, %struct.mi_memid_s, ptr, i64, i64, i64, %struct.mi_memid_s, i32, i8, i8, %union.pthread_mutex_t, i64, i64, ptr, ptr, ptr, ptr, [1 x i64] }
%union.pthread_mutex_t = type { %struct.__pthread_mutex_s }
%struct.__pthread_mutex_s = type { i32, i32, i32, i32, i32, i16, i16, %struct.__pthread_internal_list }
%struct.__pthread_internal_list = type { ptr, ptr }
%struct.mi_memid_arena_info = type { i64, i32, i8 }

; Function Attrs: inlinehint nounwind uwtable
define internal void @_mi_memid_create(ptr dead_on_unwind noalias writable sret(%struct.mi_memid_s) align 8 %0, i32 noundef %1) #4 {
  %3 = alloca i32, align 4
  store i32 %1, ptr %3, align 4, !tbaa !52
  call void @llvm.memset.p0.i64(ptr align 8 %0, i8 0, i64 24, i1 false)
  %4 = load i32, ptr %3, align 4, !tbaa !52
  %5 = getelementptr inbounds nuw %struct.mi_memid_s, ptr %0, i32 0, i32 4
  store i32 %4, ptr %5, align 4, !tbaa !59
  ret void
}

; Function Attrs: inlinehint nounwind uwtable
define internal i64 @mi_bitmap_index_bit(i64 noundef %0) #4 {
  %2 = alloca i64, align 8
  store i64 %0, ptr %2, align 8, !tbaa !15
  %3 = load i64, ptr %2, align 8, !tbaa !15
  ret i64 %3
}

; Function Attrs: inlinehint nounwind uwtable
define internal i64 @mi_bitmap_index_field(i64 noundef %0) #4 {
  %2 = alloca i64, align 8
  store i64 %0, ptr %2, align 8, !tbaa !15
  %3 = load i64, ptr %2, align 8, !tbaa !15
  %4 = udiv i64 %3, 64
  ret i64 %4
}

; Function Attrs: nounwind uwtable
define internal i64 @mi_arena_block_size(i64 noundef %0) #0 {
  %2 = alloca i64, align 8
  store i64 %0, ptr %2, align 8, !tbaa !15
  %3 = load i64, ptr %2, align 8, !tbaa !15
  %4 = mul i64 %3, 4194304
  ret i64 %4
}

; Function Attrs: nounwind uwtable
define internal void @mi_memid_create_arena(ptr dead_on_unwind noalias writable sret(%struct.mi_memid_s) align 8 %0, i32 noundef %1, i1 noundef zeroext %2, i64 noundef %3) #0 {
  %5 = alloca i32, align 4
  %6 = alloca i8, align 1
  %7 = alloca i64, align 8
  store i32 %1, ptr %5, align 4, !tbaa !52
  %8 = zext i1 %2 to i8
  store i8 %8, ptr %6, align 1, !tbaa !21
  store i64 %3, ptr %7, align 8, !tbaa !15
  call void @_mi_memid_create(ptr dead_on_unwind writable sret(%struct.mi_memid_s) align 8 %0, i32 noundef 6) #12
  %9 = load i32, ptr %5, align 4, !tbaa !52
  %10 = getelementptr inbounds nuw %struct.mi_memid_s, ptr %0, i32 0, i32 0
  %11 = getelementptr inbounds nuw %struct.mi_memid_arena_info, ptr %10, i32 0, i32 1
  store i32 %9, ptr %11, align 8, !tbaa !33
  %12 = load i64, ptr %7, align 8, !tbaa !15
  %13 = getelementptr inbounds nuw %struct.mi_memid_s, ptr %0, i32 0, i32 0
  %14 = getelementptr inbounds nuw %struct.mi_memid_arena_info, ptr %13, i32 0, i32 0
  store i64 %12, ptr %14, align 8, !tbaa !33
  %15 = load i8, ptr %6, align 1, !tbaa !21, !range !22, !noundef !23
  %16 = trunc i8 %15 to i1
  %17 = getelementptr inbounds nuw %struct.mi_memid_s, ptr %0, i32 0, i32 0
  %18 = getelementptr inbounds nuw %struct.mi_memid_arena_info, ptr %17, i32 0, i32 2
  %19 = zext i1 %16 to i8
  store i8 %19, ptr %18, align 4, !tbaa !33
  ret void
}

; Function Attrs: nounwind uwtable
define hidden ptr @mi_arena_block_start(ptr noundef %0, i64 noundef %1) #0 {
  %3 = alloca ptr, align 8
  %4 = alloca i64, align 8
  store ptr %0, ptr %3, align 8, !tbaa !16
  store i64 %1, ptr %4, align 8, !tbaa !15
  %5 = load ptr, ptr %3, align 8, !tbaa !16
  %6 = getelementptr inbounds nuw %struct.mi_arena_s, ptr %5, i32 0, i32 2
  %7 = load atomic ptr, ptr %6 seq_cst, align 8, !tbaa !66
  %8 = load i64, ptr %4, align 8, !tbaa !15
  %9 = call i64 @mi_bitmap_index_bit(i64 noundef %8) #12
  %10 = call i64 @mi_arena_block_size(i64 noundef %9) #12
  %11 = getelementptr inbounds nuw i8, ptr %7, i64 %10
  ret ptr %11
}

; Function Attrs: nounwind uwtable
define internal zeroext i1 @mi_arena_try_claim(ptr noundef %0, i64 noundef %1, ptr noundef %2) #0 {
  %4 = alloca i1, align 1
  %5 = alloca ptr, align 8
  %6 = alloca i64, align 8
  %7 = alloca ptr, align 8
  %8 = alloca i64, align 8
  %9 = alloca i64, align 8
  %10 = alloca i32, align 4
  store ptr %0, ptr %5, align 8, !tbaa !16
  store i64 %1, ptr %6, align 8, !tbaa !15
  store ptr %2, ptr %7, align 8, !tbaa !31
  call void @llvm.lifetime.start.p0(i64 8, ptr %8) #13
  store i64 0, ptr %8, align 8, !tbaa !15
  %11 = load ptr, ptr %5, align 8, !tbaa !16
  %12 = getelementptr inbounds nuw %struct.mi_arena_s, ptr %11, i32 0, i32 17
  %13 = getelementptr inbounds [1 x i64], ptr %12, i64 0, i64 0
  %14 = load ptr, ptr %5, align 8, !tbaa !16
  %15 = getelementptr inbounds nuw %struct.mi_arena_s, ptr %14, i32 0, i32 4
  %16 = load i64, ptr %15, align 8, !tbaa !20
  %17 = load i64, ptr %8, align 8, !tbaa !15
  %18 = load i64, ptr %6, align 8, !tbaa !15
  %19 = load ptr, ptr %7, align 8, !tbaa !31
  %20 = call zeroext i1 @_mi_bitmap_try_find_from_claim_across(ptr noundef %13, i64 noundef %16, i64 noundef %17, i64 noundef %18, ptr noundef %19) #12
  br i1 %20, label %21, label %28

21:                                               ; preds = %3
  %22 = load ptr, ptr %5, align 8, !tbaa !16
  %23 = getelementptr inbounds nuw %struct.mi_arena_s, ptr %22, i32 0, i32 11
  %24 = load ptr, ptr %7, align 8, !tbaa !31
  %25 = load i64, ptr %24, align 8, !tbaa !15
  %26 = call i64 @mi_bitmap_index_field(i64 noundef %25) #12
  store i64 %26, ptr %9, align 8, !tbaa !15
  %27 = load i64, ptr %9, align 8
  store atomic i64 %27, ptr %23 monotonic, align 8
  store i1 true, ptr %4, align 1
  store i32 1, ptr %10, align 4
  br label %29

28:                                               ; preds = %3
  store i1 false, ptr %4, align 1
  store i32 1, ptr %10, align 4
  br label %29

29:                                               ; preds = %28, %21
  call void @llvm.lifetime.end.p0(i64 8, ptr %8) #13
  %30 = load i1, ptr %4, align 1
  ret i1 %30
}

; Function Attrs: noinline nounwind uwtable
define internal ptr @mi_arena_try_alloc_at(ptr noundef %0, i64 noundef %1, i64 noundef %2, i1 noundef zeroext %3, ptr noundef %4) #6 {
  %6 = alloca ptr, align 8
  %7 = alloca ptr, align 8
  %8 = alloca i64, align 8
  %9 = alloca i64, align 8
  %10 = alloca i8, align 1
  %11 = alloca ptr, align 8
  %12 = alloca i64, align 8
  %13 = alloca i32, align 4
  %14 = alloca ptr, align 8
  %15 = alloca %struct.mi_memid_s, align 8
  %16 = alloca i8, align 1
  %17 = alloca i8, align 1
  store ptr %0, ptr %7, align 8, !tbaa !16
  store i64 %1, ptr %8, align 8, !tbaa !15
  store i64 %2, ptr %9, align 8, !tbaa !15
  %18 = zext i1 %3 to i8
  store i8 %18, ptr %10, align 1, !tbaa !21
  store ptr %4, ptr %11, align 8, !tbaa !60
  call void @llvm.lifetime.start.p0(i64 8, ptr %12) #13
  %19 = load ptr, ptr %7, align 8, !tbaa !16
  %20 = load i64, ptr %9, align 8, !tbaa !15
  %21 = call zeroext i1 @mi_arena_try_claim(ptr noundef %19, i64 noundef %20, ptr noundef %12) #12
  br i1 %21, label %23, label %22

22:                                               ; preds = %5
  store ptr null, ptr %6, align 8
  store i32 1, ptr %13, align 4
  br label %140

23:                                               ; preds = %5
  call void @llvm.lifetime.start.p0(i64 8, ptr %14) #13
  %24 = load ptr, ptr %7, align 8, !tbaa !16
  %25 = load i64, ptr %12, align 8, !tbaa !15
  %26 = call ptr @mi_arena_block_start(ptr noundef %24, i64 noundef %25) #12
  store ptr %26, ptr %14, align 8, !tbaa !53
  %27 = load ptr, ptr %11, align 8, !tbaa !60
  call void @llvm.lifetime.start.p0(i64 24, ptr %15) #13
  %28 = load ptr, ptr %7, align 8, !tbaa !16
  %29 = getelementptr inbounds nuw %struct.mi_arena_s, ptr %28, i32 0, i32 0
  %30 = load i32, ptr %29, align 8, !tbaa !72
  %31 = load ptr, ptr %7, align 8, !tbaa !16
  %32 = getelementptr inbounds nuw %struct.mi_arena_s, ptr %31, i32 0, i32 8
  %33 = load i8, ptr %32, align 4, !tbaa !73, !range !22, !noundef !23
  %34 = trunc i8 %33 to i1
  %35 = load i64, ptr %12, align 8, !tbaa !15
  call void @mi_memid_create_arena(ptr dead_on_unwind writable sret(%struct.mi_memid_s) align 8 %15, i32 noundef %30, i1 noundef zeroext %34, i64 noundef %35) #12
  call void @llvm.memcpy.p0.p0.i64(ptr align 8 %27, ptr align 8 %15, i64 24, i1 false), !tbaa.struct !62
  call void @llvm.lifetime.end.p0(i64 24, ptr %15) #13
  %36 = load ptr, ptr %7, align 8, !tbaa !16
  %37 = getelementptr inbounds nuw %struct.mi_arena_s, ptr %36, i32 0, i32 1
  %38 = getelementptr inbounds nuw %struct.mi_memid_s, ptr %37, i32 0, i32 1
  %39 = load i8, ptr %38, align 8, !tbaa !76, !range !22, !noundef !23
  %40 = trunc i8 %39 to i1
  %41 = load ptr, ptr %11, align 8, !tbaa !60
  %42 = getelementptr inbounds nuw %struct.mi_memid_s, ptr %41, i32 0, i32 1
  %43 = zext i1 %40 to i8
  store i8 %43, ptr %42, align 8, !tbaa !86
  %44 = load ptr, ptr %7, align 8, !tbaa !16
  %45 = getelementptr inbounds nuw %struct.mi_arena_s, ptr %44, i32 0, i32 15
  %46 = load ptr, ptr %45, align 8, !tbaa !78
  %47 = icmp ne ptr %46, null
  br i1 %47, label %48, label %58

48:                                               ; preds = %23
  %49 = load ptr, ptr %7, align 8, !tbaa !16
  %50 = getelementptr inbounds nuw %struct.mi_arena_s, ptr %49, i32 0, i32 15
  %51 = load ptr, ptr %50, align 8, !tbaa !78
  %52 = load ptr, ptr %7, align 8, !tbaa !16
  %53 = getelementptr inbounds nuw %struct.mi_arena_s, ptr %52, i32 0, i32 4
  %54 = load i64, ptr %53, align 8, !tbaa !20
  %55 = load i64, ptr %9, align 8, !tbaa !15
  %56 = load i64, ptr %12, align 8, !tbaa !15
  %57 = call zeroext i1 @_mi_bitmap_unclaim_across(ptr noundef %51, i64 noundef %54, i64 noundef %55, i64 noundef %56) #12
  br label %58

58:                                               ; preds = %48, %23
  %59 = load ptr, ptr %7, align 8, !tbaa !16
  %60 = getelementptr inbounds nuw %struct.mi_arena_s, ptr %59, i32 0, i32 1
  %61 = getelementptr inbounds nuw %struct.mi_memid_s, ptr %60, i32 0, i32 3
  %62 = load i8, ptr %61, align 2, !tbaa !97, !range !22, !noundef !23
  %63 = trunc i8 %62 to i1
  br i1 %63, label %64, label %82

64:                                               ; preds = %58
  %65 = load ptr, ptr %7, align 8, !tbaa !16
  %66 = getelementptr inbounds nuw %struct.mi_arena_s, ptr %65, i32 0, i32 13
  %67 = load ptr, ptr %66, align 8, !tbaa !89
  %68 = icmp ne ptr %67, null
  br i1 %68, label %69, label %82

69:                                               ; preds = %64
  %70 = load ptr, ptr %7, align 8, !tbaa !16
  %71 = getelementptr inbounds nuw %struct.mi_arena_s, ptr %70, i32 0, i32 13
  %72 = load ptr, ptr %71, align 8, !tbaa !89
  %73 = load ptr, ptr %7, align 8, !tbaa !16
  %74 = getelementptr inbounds nuw %struct.mi_arena_s, ptr %73, i32 0, i32 4
  %75 = load i64, ptr %74, align 8, !tbaa !20
  %76 = load i64, ptr %9, align 8, !tbaa !15
  %77 = load i64, ptr %12, align 8, !tbaa !15
  %78 = call zeroext i1 @_mi_bitmap_claim_across(ptr noundef %72, i64 noundef %75, i64 noundef %76, i64 noundef %77, ptr noundef null) #12
  %79 = load ptr, ptr %11, align 8, !tbaa !60
  %80 = getelementptr inbounds nuw %struct.mi_memid_s, ptr %79, i32 0, i32 3
  %81 = zext i1 %78 to i8
  store i8 %81, ptr %80, align 2, !tbaa !63
  br label %82

82:                                               ; preds = %69, %64, %58
  %83 = load ptr, ptr %7, align 8, !tbaa !16
  %84 = getelementptr inbounds nuw %struct.mi_arena_s, ptr %83, i32 0, i32 14
  %85 = load ptr, ptr %84, align 8, !tbaa !77
  %86 = icmp eq ptr %85, null
  br i1 %86, label %87, label %90

87:                                               ; preds = %82
  %88 = load ptr, ptr %11, align 8, !tbaa !60
  %89 = getelementptr inbounds nuw %struct.mi_memid_s, ptr %88, i32 0, i32 2
  store i8 1, ptr %89, align 1, !tbaa !85
  br label %138

90:                                               ; preds = %82
  %91 = load i8, ptr %10, align 1, !tbaa !21, !range !22, !noundef !23
  %92 = trunc i8 %91 to i1
  br i1 %92, label %93, label %124

93:                                               ; preds = %90
  %94 = load ptr, ptr %11, align 8, !tbaa !60
  %95 = getelementptr inbounds nuw %struct.mi_memid_s, ptr %94, i32 0, i32 2
  store i8 1, ptr %95, align 1, !tbaa !85
  call void @llvm.lifetime.start.p0(i64 1, ptr %16) #13
  %96 = load ptr, ptr %7, align 8, !tbaa !16
  %97 = getelementptr inbounds nuw %struct.mi_arena_s, ptr %96, i32 0, i32 14
  %98 = load ptr, ptr %97, align 8, !tbaa !77
  %99 = load ptr, ptr %7, align 8, !tbaa !16
  %100 = getelementptr inbounds nuw %struct.mi_arena_s, ptr %99, i32 0, i32 4
  %101 = load i64, ptr %100, align 8, !tbaa !20
  %102 = load i64, ptr %9, align 8, !tbaa !15
  %103 = load i64, ptr %12, align 8, !tbaa !15
  %104 = call zeroext i1 @_mi_bitmap_claim_across(ptr noundef %98, i64 noundef %101, i64 noundef %102, i64 noundef %103, ptr noundef %16) #12
  %105 = load i8, ptr %16, align 1, !tbaa !21, !range !22, !noundef !23
  %106 = trunc i8 %105 to i1
  br i1 %106, label %107, label %123

107:                                              ; preds = %93
  call void @llvm.lifetime.start.p0(i64 1, ptr %17) #13
  store i8 0, ptr %17, align 1, !tbaa !21
  %108 = load ptr, ptr %14, align 8, !tbaa !53
  %109 = load i64, ptr %9, align 8, !tbaa !15
  %110 = call i64 @mi_arena_block_size(i64 noundef %109) #12
  %111 = call zeroext i1 @_mi_os_commit(ptr noundef %108, i64 noundef %110, ptr noundef %17) #12
  br i1 %111, label %115, label %112

112:                                              ; preds = %107
  %113 = load ptr, ptr %11, align 8, !tbaa !60
  %114 = getelementptr inbounds nuw %struct.mi_memid_s, ptr %113, i32 0, i32 2
  store i8 0, ptr %114, align 1, !tbaa !85
  br label %122

115:                                              ; preds = %107
  %116 = load i8, ptr %17, align 1, !tbaa !21, !range !22, !noundef !23
  %117 = trunc i8 %116 to i1
  br i1 %117, label %118, label %121

118:                                              ; preds = %115
  %119 = load ptr, ptr %11, align 8, !tbaa !60
  %120 = getelementptr inbounds nuw %struct.mi_memid_s, ptr %119, i32 0, i32 3
  store i8 1, ptr %120, align 2, !tbaa !63
  br label %121

121:                                              ; preds = %118, %115
  br label %122

122:                                              ; preds = %121, %112
  call void @llvm.lifetime.end.p0(i64 1, ptr %17) #13
  br label %123

123:                                              ; preds = %122, %93
  call void @llvm.lifetime.end.p0(i64 1, ptr %16) #13
  br label %137

124:                                              ; preds = %90
  %125 = load ptr, ptr %7, align 8, !tbaa !16
  %126 = getelementptr inbounds nuw %struct.mi_arena_s, ptr %125, i32 0, i32 14
  %127 = load ptr, ptr %126, align 8, !tbaa !77
  %128 = load ptr, ptr %7, align 8, !tbaa !16
  %129 = getelementptr inbounds nuw %struct.mi_arena_s, ptr %128, i32 0, i32 4
  %130 = load i64, ptr %129, align 8, !tbaa !20
  %131 = load i64, ptr %9, align 8, !tbaa !15
  %132 = load i64, ptr %12, align 8, !tbaa !15
  %133 = call zeroext i1 @_mi_bitmap_is_claimed_across(ptr noundef %127, i64 noundef %130, i64 noundef %131, i64 noundef %132) #12
  %134 = load ptr, ptr %11, align 8, !tbaa !60
  %135 = getelementptr inbounds nuw %struct.mi_memid_s, ptr %134, i32 0, i32 2
  %136 = zext i1 %133 to i8
  store i8 %136, ptr %135, align 1, !tbaa !85
  br label %137

137:                                              ; preds = %124, %123
  br label %138

138:                                              ; preds = %137, %87
  %139 = load ptr, ptr %14, align 8, !tbaa !53
  store ptr %139, ptr %6, align 8
  store i32 1, ptr %13, align 4
  call void @llvm.lifetime.end.p0(i64 8, ptr %14) #13
  br label %140

140:                                              ; preds = %138, %22
  call void @llvm.lifetime.end.p0(i64 8, ptr %12) #13
  %141 = load ptr, ptr %6, align 8
  ret ptr %141
}