; Function Attrs: noinline nounwind uwtable
define internal fastcc ptr @mi_arena_try_alloc_at(ptr noundef nonnull %0, i64 noundef range(i64 0, 288230376151711744) %1, i1 noundef zeroext %2, ptr noundef writeonly captures(none) %3) unnamed_addr #9 {
  %5 = alloca i64, align 8
  %6 = alloca i8, align 1
  %7 = alloca i8, align 1
  call void @llvm.lifetime.start.p0(i64 8, ptr nonnull %5) #21
  %8 = getelementptr inbounds nuw i8, ptr %0, i64 184
  %9 = getelementptr inbounds nuw i8, ptr %0, i64 48
  %10 = load i64, ptr %9, align 8, !tbaa !17
  %11 = call zeroext i1 @_mi_bitmap_try_find_from_claim_across(ptr noundef nonnull %8, i64 noundef %10, i64 noundef 0, i64 noundef range(i64 0, 288230376151711744) %1, ptr noundef nonnull %5) #20
  br i1 %11, label %12, label %mi_arena_try_claim.exit

12:                                               ; preds = %4
  %13 = getelementptr inbounds nuw i8, ptr %0, i64 136
  %14 = load i64, ptr %5, align 8, !tbaa !25
  %15 = lshr i64 %14, 6
  store atomic i64 %15, ptr %13 monotonic, align 8
  %16 = getelementptr inbounds nuw i8, ptr %0, i64 32
  %17 = load atomic ptr, ptr %16 seq_cst, align 8, !tbaa !49
  %18 = shl i64 %14, 22
  %19 = getelementptr inbounds nuw i8, ptr %17, i64 %18
  %20 = load i32, ptr %0, align 8, !tbaa !53
  %21 = getelementptr inbounds nuw i8, ptr %0, i64 92
  %22 = load i8, ptr %21, align 4, !tbaa !54, !range !26, !noundef !27
  %23 = load i64, ptr %5, align 8, !tbaa !25
  store i64 %23, ptr %3, align 8
  %.sroa.4.0..sroa_idx = getelementptr inbounds nuw i8, ptr %3, i64 8
  store i32 %20, ptr %.sroa.4.0..sroa_idx, align 8
  %.sroa.6.0..sroa_idx = getelementptr inbounds nuw i8, ptr %3, i64 12
  store i8 %22, ptr %.sroa.6.0..sroa_idx, align 4
  %.sroa.7.0..sroa_idx = getelementptr inbounds nuw i8, ptr %3, i64 13
  call void @llvm.memset.p0.i64(ptr noundef nonnull align 1 dereferenceable(7) %.sroa.7.0..sroa_idx, i8 0, i64 7, i1 false)
  %.sroa.738.0..sroa_idx = getelementptr inbounds nuw i8, ptr %3, i64 20
  store i32 6, ptr %.sroa.738.0..sroa_idx, align 4, !tbaa !47
  %24 = getelementptr inbounds nuw i8, ptr %0, i64 24
  %25 = load i8, ptr %24, align 8, !tbaa !57, !range !26, !noundef !27
  %26 = getelementptr inbounds nuw i8, ptr %3, i64 16
  store i8 %25, ptr %26, align 8, !tbaa !76
  %27 = getelementptr inbounds nuw i8, ptr %0, i64 168
  %28 = load ptr, ptr %27, align 8, !tbaa !59
  %.not = icmp eq ptr %28, null
  br i1 %.not, label %32, label %29

29:                                               ; preds = %12
  %30 = load i64, ptr %9, align 8, !tbaa !17
  %31 = call zeroext i1 @_mi_bitmap_unclaim_across(ptr noundef nonnull %28, i64 noundef %30, i64 noundef %1, i64 noundef %23) #20
  br label %32

32:                                               ; preds = %29, %12
  %33 = getelementptr inbounds nuw i8, ptr %0, i64 26
  %34 = load i8, ptr %33, align 2, !tbaa !91, !range !26, !noundef !27
  %35 = trunc nuw i8 %34 to i1
  br i1 %35, label %36, label %45

36:                                               ; preds = %32
  %37 = getelementptr inbounds nuw i8, ptr %0, i64 152
  %38 = load ptr, ptr %37, align 8, !tbaa !81
  %.not37 = icmp eq ptr %38, null
  br i1 %.not37, label %45, label %39

39:                                               ; preds = %36
  %40 = load i64, ptr %9, align 8, !tbaa !17
  %41 = load i64, ptr %5, align 8, !tbaa !25
  %42 = call zeroext i1 @_mi_bitmap_claim_across(ptr noundef nonnull %38, i64 noundef %40, i64 noundef %1, i64 noundef %41, ptr noundef null) #20
  %43 = getelementptr inbounds nuw i8, ptr %3, i64 18
  %44 = zext i1 %42 to i8
  store i8 %44, ptr %43, align 2, !tbaa !48
  br label %45

45:                                               ; preds = %39, %36, %32
  %46 = getelementptr inbounds nuw i8, ptr %0, i64 160
  %47 = load ptr, ptr %46, align 8, !tbaa !58
  %48 = icmp eq ptr %47, null
  br i1 %48, label %49, label %51

49:                                               ; preds = %45
  %50 = getelementptr inbounds nuw i8, ptr %3, i64 17
  store i8 1, ptr %50, align 1, !tbaa !75
  br label %mi_arena_try_claim.exit

51:                                               ; preds = %45
  br i1 %2, label %52, label %70

52:                                               ; preds = %51
  %53 = getelementptr inbounds nuw i8, ptr %3, i64 17
  store i8 1, ptr %53, align 1, !tbaa !75
  call void @llvm.lifetime.start.p0(i64 1, ptr nonnull %6) #21
  %54 = load i64, ptr %9, align 8, !tbaa !17
  %55 = load i64, ptr %5, align 8, !tbaa !25
  %56 = call zeroext i1 @_mi_bitmap_claim_across(ptr noundef nonnull %47, i64 noundef %54, i64 noundef %1, i64 noundef %55, ptr noundef nonnull %6) #20
  %57 = load i8, ptr %6, align 1, !tbaa !78, !range !26, !noundef !27
  %58 = trunc nuw i8 %57 to i1
  br i1 %58, label %59, label %69

59:                                               ; preds = %52
  call void @llvm.lifetime.start.p0(i64 1, ptr nonnull %7) #21
  store i8 0, ptr %7, align 1, !tbaa !78
  %60 = shl i64 %1, 22
  %61 = call zeroext i1 @_mi_os_commit(ptr noundef %19, i64 noundef %60, ptr noundef nonnull %7) #20
  br i1 %61, label %63, label %62

62:                                               ; preds = %59
  store i8 0, ptr %53, align 1, !tbaa !75
  br label %68

63:                                               ; preds = %59
  %64 = load i8, ptr %7, align 1, !tbaa !78, !range !26, !noundef !27
  %65 = trunc nuw i8 %64 to i1
  br i1 %65, label %66, label %68

66:                                               ; preds = %63
  %67 = getelementptr inbounds nuw i8, ptr %3, i64 18
  store i8 1, ptr %67, align 2, !tbaa !48
  br label %68

68:                                               ; preds = %63, %66, %62
  call void @llvm.lifetime.end.p0(i64 1, ptr nonnull %7) #21
  br label %69

69:                                               ; preds = %68, %52
  call void @llvm.lifetime.end.p0(i64 1, ptr nonnull %6) #21
  br label %mi_arena_try_claim.exit

70:                                               ; preds = %51
  %71 = load i64, ptr %9, align 8, !tbaa !17
  %72 = load i64, ptr %5, align 8, !tbaa !25
  %73 = call zeroext i1 @_mi_bitmap_is_claimed_across(ptr noundef nonnull %47, i64 noundef %71, i64 noundef %1, i64 noundef %72) #20
  %74 = getelementptr inbounds nuw i8, ptr %3, i64 17
  %75 = zext i1 %73 to i8
  store i8 %75, ptr %74, align 1, !tbaa !75
  br label %mi_arena_try_claim.exit

mi_arena_try_claim.exit:                          ; preds = %4, %49, %70, %69
  %.0 = phi ptr [ %19, %69 ], [ %19, %70 ], [ %19, %49 ], [ null, %4 ]
  call void @llvm.lifetime.end.p0(i64 8, ptr nonnull %5) #21
  ret ptr %.0
}